target datalayout = "e-m:e-p270:32:32-p271:32:32-p272:64:64-i64:64-i128:128-f80:128-n8:16:32:64-S128"
target triple = "x86_64-pc-linux-gnu"

%struct.jpeg_compress_struct = type { ptr, ptr, ptr, ptr, i32, i32, ptr, i32, i32, i32, i32, double, i32, i32, i32, ptr, [4 x ptr], [4 x ptr], [4 x ptr], [16 x i8], [16 x i8], [16 x i8], i32, ptr, i32, i32, i32, i32, i32, i32, i32, i32, i32, i8, i8, i8, i16, i16, i32, i32, i32, i32, i32, i32, i32, [4 x ptr], i32, i32, i32, [10 x i32], i32, i32, i32, i32, ptr, ptr, ptr, ptr, ptr, ptr, ptr, ptr, ptr, ptr, i32 }

; Function Attrs: nounwind uwtable
define internal void @null_convert(ptr noundef %0, ptr noundef %1, ptr noundef %2, i32 noundef %3, i32 noundef %4) #0 {
  %6 = alloca ptr, align 8
  %7 = alloca ptr, align 8
  %8 = alloca ptr, align 8
  %9 = alloca i32, align 4
  %10 = alloca i32, align 4
  %11 = alloca ptr, align 8
  %12 = alloca ptr, align 8
  %13 = alloca ptr, align 8
  %14 = alloca ptr, align 8
  %15 = alloca ptr, align 8
  %16 = alloca ptr, align 8
  %17 = alloca i32, align 4
  %18 = alloca i32, align 4
  %19 = alloca i32, align 4
  %20 = alloca i32, align 4
  store ptr %0, ptr %6, align 8, !tbaa !3
  store ptr %1, ptr %7, align 8, !tbaa !51
  store ptr %2, ptr %8, align 8, !tbaa !52
  store i32 %3, ptr %9, align 4, !tbaa !47
  store i32 %4, ptr %10, align 4, !tbaa !47
  call void @llvm.lifetime.start.p0(i64 8, ptr %11) #4
  call void @llvm.lifetime.start.p0(i64 8, ptr %12) #4
  call void @llvm.lifetime.start.p0(i64 8, ptr %13) #4
  call void @llvm.lifetime.start.p0(i64 8, ptr %14) #4
  call void @llvm.lifetime.start.p0(i64 8, ptr %15) #4
  call void @llvm.lifetime.start.p0(i64 8, ptr %16) #4
  call void @llvm.lifetime.start.p0(i64 4, ptr %17) #4
  call void @llvm.lifetime.start.p0(i64 4, ptr %18) #4
  call void @llvm.lifetime.start.p0(i64 4, ptr %19) #4
  %21 = load ptr, ptr %6, align 8, !tbaa !3
  %22 = getelementptr inbounds nuw %struct.jpeg_compress_struct, ptr %21, i32 0, i32 13
  %23 = load i32, ptr %22, align 4, !tbaa !49
  store i32 %23, ptr %19, align 4, !tbaa !47
  call void @llvm.lifetime.start.p0(i64 4, ptr %20) #4
  %24 = load ptr, ptr %6, align 8, !tbaa !3
  %25 = getelementptr inbounds nuw %struct.jpeg_compress_struct, ptr %24, i32 0, i32 7
  %26 = load i32, ptr %25, align 8, !tbaa !54
  store i32 %26, ptr %20, align 4, !tbaa !47
  %27 = load i32, ptr %19, align 4, !tbaa !47
  %28 = icmp eq i32 %27, 3
  br i1 %28, label %29, label %92

29:                                               ; preds = %5
  br label %30

30:                                               ; preds = %90, %29
  %31 = load i32, ptr %10, align 4, !tbaa !47
  %32 = add nsw i32 %31, -1
  store i32 %32, ptr %10, align 4, !tbaa !47
  %33 = icmp sge i32 %32, 0
  br i1 %33, label %34, label %91

34:                                               ; preds = %30
  %35 = load ptr, ptr %7, align 8, !tbaa !51
  %36 = getelementptr inbounds nuw ptr, ptr %35, i32 1
  store ptr %36, ptr %7, align 8, !tbaa !51
  %37 = load ptr, ptr %35, align 8, !tbaa !55
  store ptr %37, ptr %11, align 8, !tbaa !55
  %38 = load ptr, ptr %8, align 8, !tbaa !52
  %39 = getelementptr inbounds ptr, ptr %38, i64 0
  %40 = load ptr, ptr %39, align 8, !tbaa !51
  %41 = load i32, ptr %9, align 4, !tbaa !47
  %42 = zext i32 %41 to i64
  %43 = getelementptr inbounds nuw ptr, ptr %40, i64 %42
  %44 = load ptr, ptr %43, align 8, !tbaa !55
  store ptr %44, ptr %13, align 8, !tbaa !55
  %45 = load ptr, ptr %8, align 8, !tbaa !52
  %46 = getelementptr inbounds ptr, ptr %45, i64 1
  %47 = load ptr, ptr %46, align 8, !tbaa !51
  %48 = load i32, ptr %9, align 4, !tbaa !47
  %49 = zext i32 %48 to i64
  %50 = getelementptr inbounds nuw ptr, ptr %47, i64 %49
  %51 = load ptr, ptr %50, align 8, !tbaa !55
  store ptr %51, ptr %14, align 8, !tbaa !55
  %52 = load ptr, ptr %8, align 8, !tbaa !52
  %53 = getelementptr inbounds ptr, ptr %52, i64 2
  %54 = load ptr, ptr %53, align 8, !tbaa !51
  %55 = load i32, ptr %9, align 4, !tbaa !47
  %56 = zext i32 %55 to i64
  %57 = getelementptr inbounds nuw ptr, ptr %54, i64 %56
  %58 = load ptr, ptr %57, align 8, !tbaa !55
  store ptr %58, ptr %15, align 8, !tbaa !55
  %59 = load i32, ptr %9, align 4, !tbaa !47
  %60 = add i32 %59, 1
  store i32 %60, ptr %9, align 4, !tbaa !47
  store i32 0, ptr %17, align 4, !tbaa !47
  br label %61

61:                                               ; preds = %87, %34
  %62 = load i32, ptr %17, align 4, !tbaa !47
  %63 = load i32, ptr %20, align 4, !tbaa !47
  %64 = icmp ult i32 %62, %63
  br i1 %64, label %65, label %90

65:                                               ; preds = %61
  %66 = load ptr, ptr %11, align 8, !tbaa !55
  %67 = getelementptr inbounds nuw i8, ptr %66, i32 1
  store ptr %67, ptr %11, align 8, !tbaa !55
  %68 = load i8, ptr %66, align 1, !tbaa !34
  %69 = load ptr, ptr %13, align 8, !tbaa !55
  %70 = load i32, ptr %17, align 4, !tbaa !47
  %71 = zext i32 %70 to i64
  %72 = getelementptr inbounds nuw i8, ptr %69, i64 %71
  store i8 %68, ptr %72, align 1, !tbaa !34
  %73 = load ptr, ptr %11, align 8, !tbaa !55
  %74 = getelementptr inbounds nuw i8, ptr %73, i32 1
  store ptr %74, ptr %11, align 8, !tbaa !55
  %75 = load i8, ptr %73, align 1, !tbaa !34
  %76 = load ptr, ptr %14, align 8, !tbaa !55
  %77 = load i32, ptr %17, align 4, !tbaa !47
  %78 = zext i32 %77 to i64
  %79 = getelementptr inbounds nuw i8, ptr %76, i64 %78
  store i8 %75, ptr %79, align 1, !tbaa !34
  %80 = load ptr, ptr %11, align 8, !tbaa !55
  %81 = getelementptr inbounds nuw i8, ptr %80, i32 1
  store ptr %81, ptr %11, align 8, !tbaa !55
  %82 = load i8, ptr %80, align 1, !tbaa !34
  %83 = load ptr, ptr %15, align 8, !tbaa !55
  %84 = load i32, ptr %17, align 4, !tbaa !47
  %85 = zext i32 %84 to i64
  %86 = getelementptr inbounds nuw i8, ptr %83, i64 %85
  store i8 %82, ptr %86, align 1, !tbaa !34
  br label %87

87:                                               ; preds = %65
  %88 = load i32, ptr %17, align 4, !tbaa !47
  %89 = add i32 %88, 1
  store i32 %89, ptr %17, align 4, !tbaa !47
  br label %61, !llvm.loop !64

90:                                               ; preds = %61
  br label %30, !llvm.loop !65

91:                                               ; preds = %30
  br label %226

92:                                               ; preds = %5
  %93 = load i32, ptr %19, align 4, !tbaa !47
  %94 = icmp eq i32 %93, 4
  br i1 %94, label %95, label %172

95:                                               ; preds = %92
  br label %96

96:                                               ; preds = %170, %95
  %97 = load i32, ptr %10, align 4, !tbaa !47
  %98 = add nsw i32 %97, -1
  store i32 %98, ptr %10, align 4, !tbaa !47
  %99 = icmp sge i32 %98, 0
  br i1 %99, label %100, label %171

100:                                              ; preds = %96
  %101 = load ptr, ptr %7, align 8, !tbaa !51
  %102 = getelementptr inbounds nuw ptr, ptr %101, i32 1
  store ptr %102, ptr %7, align 8, !tbaa !51
  %103 = load ptr, ptr %101, align 8, !tbaa !55
  store ptr %103, ptr %11, align 8, !tbaa !55
  %104 = load ptr, ptr %8, align 8, !tbaa !52
  %105 = getelementptr inbounds ptr, ptr %104, i64 0
  %106 = load ptr, ptr %105, align 8, !tbaa !51
  %107 = load i32, ptr %9, align 4, !tbaa !47
  %108 = zext i32 %107 to i64
  %109 = getelementptr inbounds nuw ptr, ptr %106, i64 %108
  %110 = load ptr, ptr %109, align 8, !tbaa !55
  store ptr %110, ptr %13, align 8, !tbaa !55
  %111 = load ptr, ptr %8, align 8, !tbaa !52
  %112 = getelementptr inbounds ptr, ptr %111, i64 1
  %113 = load ptr, ptr %112, align 8, !tbaa !51
  %114 = load i32, ptr %9, align 4, !tbaa !47
  %115 = zext i32 %114 to i64
  %116 = getelementptr inbounds nuw ptr, ptr %113, i64 %115
  %117 = load ptr, ptr %116, align 8, !tbaa !55
  store ptr %117, ptr %14, align 8, !tbaa !55
  %118 = load ptr, ptr %8, align 8, !tbaa !52
  %119 = getelementptr inbounds ptr, ptr %118, i64 2
  %120 = load ptr, ptr %119, align 8, !tbaa !51
  %121 = load i32, ptr %9, align 4, !tbaa !47
  %122 = zext i32 %121 to i64
  %123 = getelementptr inbounds nuw ptr, ptr %120, i64 %122
  %124 = load ptr, ptr %123, align 8, !tbaa !55
  store ptr %124, ptr %15, align 8, !tbaa !55
  %125 = load ptr, ptr %8, align 8, !tbaa !52
  %126 = getelementptr inbounds ptr, ptr %125, i64 3
  %127 = load ptr, ptr %126, align 8, !tbaa !51
  %128 = load i32, ptr %9, align 4, !tbaa !47
  %129 = zext i32 %128 to i64
  %130 = getelementptr inbounds nuw ptr, ptr %127, i64 %129
  %131 = load ptr, ptr %130, align 8, !tbaa !55
  store ptr %131, ptr %16, align 8, !tbaa !55
  %132 = load i32, ptr %9, align 4, !tbaa !47
  %133 = add i32 %132, 1
  store i32 %133, ptr %9, align 4, !tbaa !47
  store i32 0, ptr %17, align 4, !tbaa !47
  br label %134

134:                                              ; preds = %167, %100
  %135 = load i32, ptr %17, align 4, !tbaa !47
  %136 = load i32, ptr %20, align 4, !tbaa !47
  %137 = icmp ult i32 %135, %136
  br i1 %137, label %138, label %170

138:                                              ; preds = %134
  %139 = load ptr, ptr %11, align 8, !tbaa !55
  %140 = getelementptr inbounds nuw i8, ptr %139, i32 1
  store ptr %140, ptr %11, align 8, !tbaa !55
  %141 = load i8, ptr %139, align 1, !tbaa !34
  %142 = load ptr, ptr %13, align 8, !tbaa !55
  %143 = load i32, ptr %17, align 4, !tbaa !47
  %144 = zext i32 %143 to i64
  %145 = getelementptr inbounds nuw i8, ptr %142, i64 %144
  store i8 %141, ptr %145, align 1, !tbaa !34
  %146 = load ptr, ptr %11, align 8, !tbaa !55
  %147 = getelementptr inbounds nuw i8, ptr %146, i32 1
  store ptr %147, ptr %11, align 8, !tbaa !55
  %148 = load i8, ptr %146, align 1, !tbaa !34
  %149 = load ptr, ptr %14, align 8, !tbaa !55
  %150 = load i32, ptr %17, align 4, !tbaa !47
  %151 = zext i32 %150 to i64
  %152 = getelementptr inbounds nuw i8, ptr %149, i64 %151
  store i8 %148, ptr %152, align 1, !tbaa !34
  %153 = load ptr, ptr %11, align 8, !tbaa !55
  %154 = getelementptr inbounds nuw i8, ptr %153, i32 1
  store ptr %154, ptr %11, align 8, !tbaa !55
  %155 = load i8, ptr %153, align 1, !tbaa !34
  %156 = load ptr, ptr %15, align 8, !tbaa !55
  %157 = load i32, ptr %17, align 4, !tbaa !47
  %158 = zext i32 %157 to i64
  %159 = getelementptr inbounds nuw i8, ptr %156, i64 %158
  store i8 %155, ptr %159, align 1, !tbaa !34
  %160 = load ptr, ptr %11, align 8, !tbaa !55
  %161 = getelementptr inbounds nuw i8, ptr %160, i32 1
  store ptr %161, ptr %11, align 8, !tbaa !55
  %162 = load i8, ptr %160, align 1, !tbaa !34
  %163 = load ptr, ptr %16, align 8, !tbaa !55
  %164 = load i32, ptr %17, align 4, !tbaa !47
  %165 = zext i32 %164 to i64
  %166 = getelementptr inbounds nuw i8, ptr %163, i64 %165
  store i8 %162, ptr %166, align 1, !tbaa !34
  br label %167

167:                                              ; preds = %138
  %168 = load i32, ptr %17, align 4, !tbaa !47
  %169 = add i32 %168, 1
  store i32 %169, ptr %17, align 4, !tbaa !47
  br label %134, !llvm.loop !66

170:                                              ; preds = %134
  br label %96, !llvm.loop !67

171:                                              ; preds = %96
  br label %225

172:                                              ; preds = %92
  br label %173

173:                                              ; preds = %219, %172
  %174 = load i32, ptr %10, align 4, !tbaa !47
  %175 = add nsw i32 %174, -1
  store i32 %175, ptr %10, align 4, !tbaa !47
  %176 = icmp sge i32 %175, 0
  br i1 %176, label %177, label %224

177:                                              ; preds = %173
  store i32 0, ptr %18, align 4, !tbaa !47
  br label %178

178:                                              ; preds = %216, %177
  %179 = load i32, ptr %18, align 4, !tbaa !47
  %180 = load i32, ptr %19, align 4, !tbaa !47
  %181 = icmp slt i32 %179, %180
  br i1 %181, label %182, label %219

182:                                              ; preds = %178
  %183 = load ptr, ptr %7, align 8, !tbaa !51
  %184 = load ptr, ptr %183, align 8, !tbaa !55
  store ptr %184, ptr %11, align 8, !tbaa !55
  %185 = load ptr, ptr %8, align 8, !tbaa !52
  %186 = load i32, ptr %18, align 4, !tbaa !47
  %187 = sext i32 %186 to i64
  %188 = getelementptr inbounds ptr, ptr %185, i64 %187
  %189 = load ptr, ptr %188, align 8, !tbaa !51
  %190 = load i32, ptr %9, align 4, !tbaa !47
  %191 = zext i32 %190 to i64
  %192 = getelementptr inbounds nuw ptr, ptr %189, i64 %191
  %193 = load ptr, ptr %192, align 8, !tbaa !55
  store ptr %193, ptr %12, align 8, !tbaa !55
  store i32 0, ptr %17, align 4, !tbaa !47
  br label %194

194:                                              ; preds = %212, %182
  %195 = load i32, ptr %17, align 4, !tbaa !47
  %196 = load i32, ptr %20, align 4, !tbaa !47
  %197 = icmp ult i32 %195, %196
  br i1 %197, label %198, label %215

198:                                              ; preds = %194
  %199 = load ptr, ptr %11, align 8, !tbaa !55
  %200 = load i32, ptr %18, align 4, !tbaa !47
  %201 = sext i32 %200 to i64
  %202 = getelementptr inbounds i8, ptr %199, i64 %201
  %203 = load i8, ptr %202, align 1, !tbaa !34
  %204 = load ptr, ptr %12, align 8, !tbaa !55
  %205 = load i32, ptr %17, align 4, !tbaa !47
  %206 = zext i32 %205 to i64
  %207 = getelementptr inbounds nuw i8, ptr %204, i64 %206
  store i8 %203, ptr %207, align 1, !tbaa !34
  %208 = load i32, ptr %19, align 4, !tbaa !47
  %209 = load ptr, ptr %11, align 8, !tbaa !55
  %210 = sext i32 %208 to i64
  %211 = getelementptr inbounds i8, ptr %209, i64 %210
  store ptr %211, ptr %11, align 8, !tbaa !55
  br label %212

212:                                              ; preds = %198
  %213 = load i32, ptr %17, align 4, !tbaa !47
  %214 = add i32 %213, 1
  store i32 %214, ptr %17, align 4, !tbaa !47
  br label %194, !llvm.loop !68

215:                                              ; preds = %194
  br label %216

216:                                              ; preds = %215
  %217 = load i32, ptr %18, align 4, !tbaa !47
  %218 = add nsw i32 %217, 1
  store i32 %218, ptr %18, align 4, !tbaa !47
  br label %178, !llvm.loop !69

219:                                              ; preds = %178
  %220 = load ptr, ptr %7, align 8, !tbaa !51
  %221 = getelementptr inbounds nuw ptr, ptr %220, i32 1
  store ptr %221, ptr %7, align 8, !tbaa !51
  %222 = load i32, ptr %9, align 4, !tbaa !47
  %223 = add i32 %222, 1
  store i32 %223, ptr %9, align 4, !tbaa !47
  br label %173, !llvm.loop !70

224:                                              ; preds = %173
  br label %225

225:                                              ; preds = %224, %171
  br label %226

226:                                              ; preds = %225, %91
  call void @llvm.lifetime.end.p0(i64 4, ptr %20) #4
  call void @llvm.lifetime.end.p0(i64 4, ptr %19) #4
  call void @llvm.lifetime.end.p0(i64 4, ptr %18) #4
  call void @llvm.lifetime.end.p0(i64 4, ptr %17) #4
  call void @llvm.lifetime.end.p0(i64 8, ptr %16) #4
  call void @llvm.lifetime.end.p0(i64 8, ptr %15) #4
  call void @llvm.lifetime.end.p0(i64 8, ptr %14) #4
  call void @llvm.lifetime.end.p0(i64 8, ptr %13) #4
  call void @llvm.lifetime.end.p0(i64 8, ptr %12) #4
  call void @llvm.lifetime.end.p0(i64 8, ptr %11) #4
  ret void
}