; Function Attrs: nofree norecurse nosync nounwind memory(readwrite, inaccessiblemem: none) uwtable
define internal void @null_convert(ptr noundef readonly captures(none) %0, ptr noundef readonly captures(none) %1, ptr noundef readonly captures(none) %2, i32 noundef %3, i32 noundef %4) #2 {
  %6 = getelementptr inbounds nuw i8, ptr %0, i64 76
  %7 = load i32, ptr %6, align 4, !tbaa !46
  %8 = getelementptr inbounds nuw i8, ptr %0, i64 48
  %9 = load i32, ptr %8, align 8, !tbaa !48
  %10 = icmp sgt i32 %4, 0
  switch i32 %7, label %.preheader86 [
    i32 3, label %.preheader88
    i32 4, label %.preheader91
  ]

.preheader91:                                     ; preds = %5
  br i1 %10, label %.lr.ph97, label %.loopexit

.lr.ph97:                                         ; preds = %.preheader91
  %11 = getelementptr inbounds nuw i8, ptr %2, i64 8
  %12 = getelementptr inbounds nuw i8, ptr %2, i64 16
  %13 = getelementptr inbounds nuw i8, ptr %2, i64 24
  %.not = icmp eq i32 %9, 0
  br i1 %.not, label %.loopexit, label %.lr.ph.us.preheader

.lr.ph.us.preheader:                              ; preds = %.lr.ph97
  %wide.trip.count = zext i32 %9 to i64
  br label %.lr.ph.us

.lr.ph.us:                                        ; preds = %.lr.ph.us.preheader, %..loopexit90_crit_edge.us
  %.in = phi i32 [ %14, %..loopexit90_crit_edge.us ], [ %4, %.lr.ph.us.preheader ]
  %.196.us = phi ptr [ %42, %..loopexit90_crit_edge.us ], [ %1, %.lr.ph.us.preheader ]
  %.17095.us = phi i32 [ %43, %..loopexit90_crit_edge.us ], [ %3, %.lr.ph.us.preheader ]
  %14 = add nsw i32 %.in, -1
  %15 = load ptr, ptr %.196.us, align 8, !tbaa !49
  %16 = load ptr, ptr %2, align 8, !tbaa !51
  %17 = zext i32 %.17095.us to i64
  %18 = getelementptr inbounds nuw ptr, ptr %16, i64 %17
  %19 = load ptr, ptr %18, align 8, !tbaa !49
  %20 = load ptr, ptr %11, align 8, !tbaa !51
  %21 = getelementptr inbounds nuw ptr, ptr %20, i64 %17
  %22 = load ptr, ptr %21, align 8, !tbaa !49
  %23 = load ptr, ptr %12, align 8, !tbaa !51
  %24 = getelementptr inbounds nuw ptr, ptr %23, i64 %17
  %25 = load ptr, ptr %24, align 8, !tbaa !49
  %26 = load ptr, ptr %13, align 8, !tbaa !51
  %27 = getelementptr inbounds nuw ptr, ptr %26, i64 %17
  %28 = load ptr, ptr %27, align 8, !tbaa !49
  br label %29

29:                                               ; preds = %.lr.ph.us, %29
  %indvars.iv = phi i64 [ 0, %.lr.ph.us ], [ %indvars.iv.next, %29 ]
  %.18093.us = phi ptr [ %15, %.lr.ph.us ], [ %39, %29 ]
  %30 = getelementptr inbounds nuw i8, ptr %.18093.us, i64 1
  %31 = load i8, ptr %.18093.us, align 1, !tbaa !32
  %32 = getelementptr inbounds nuw i8, ptr %19, i64 %indvars.iv
  store i8 %31, ptr %32, align 1, !tbaa !32
  %33 = getelementptr inbounds nuw i8, ptr %.18093.us, i64 2
  %34 = load i8, ptr %30, align 1, !tbaa !32
  %35 = getelementptr inbounds nuw i8, ptr %22, i64 %indvars.iv
  store i8 %34, ptr %35, align 1, !tbaa !32
  %36 = getelementptr inbounds nuw i8, ptr %.18093.us, i64 3
  %37 = load i8, ptr %33, align 1, !tbaa !32
  %38 = getelementptr inbounds nuw i8, ptr %25, i64 %indvars.iv
  store i8 %37, ptr %38, align 1, !tbaa !32
  %39 = getelementptr inbounds nuw i8, ptr %.18093.us, i64 4
  %40 = load i8, ptr %36, align 1, !tbaa !32
  %41 = getelementptr inbounds nuw i8, ptr %28, i64 %indvars.iv
  store i8 %40, ptr %41, align 1, !tbaa !32
  %indvars.iv.next = add nuw nsw i64 %indvars.iv, 1
  %exitcond.not = icmp eq i64 %indvars.iv.next, %wide.trip.count
  br i1 %exitcond.not, label %..loopexit90_crit_edge.us, label %29, !llvm.loop !72

..loopexit90_crit_edge.us:                        ; preds = %29
  %42 = getelementptr inbounds nuw i8, ptr %.196.us, i64 8
  %43 = add i32 %.17095.us, 1
  %44 = icmp sgt i32 %.in, 1
  br i1 %44, label %.lr.ph.us, label %.loopexit, !llvm.loop !73

.preheader88:                                     ; preds = %5
  br i1 %10, label %.lr.ph102, label %.loopexit

.lr.ph102:                                        ; preds = %.preheader88
  %45 = getelementptr inbounds nuw i8, ptr %2, i64 8
  %46 = getelementptr inbounds nuw i8, ptr %2, i64 16
  %.not116 = icmp eq i32 %9, 0
  br i1 %.not116, label %.loopexit, label %.lr.ph.us103.preheader

.lr.ph.us103.preheader:                           ; preds = %.lr.ph102
  %wide.trip.count128 = zext i32 %9 to i64
  br label %.lr.ph.us103

.lr.ph.us103:                                     ; preds = %.lr.ph.us103.preheader, %..loopexit87_crit_edge.us
  %.in140 = phi i32 [ %47, %..loopexit87_crit_edge.us ], [ %4, %.lr.ph.us103.preheader ]
  %.0101.us = phi ptr [ %69, %..loopexit87_crit_edge.us ], [ %1, %.lr.ph.us103.preheader ]
  %.069100.us = phi i32 [ %70, %..loopexit87_crit_edge.us ], [ %3, %.lr.ph.us103.preheader ]
  %47 = add nsw i32 %.in140, -1
  %48 = load ptr, ptr %.0101.us, align 8, !tbaa !49
  %49 = load ptr, ptr %2, align 8, !tbaa !51
  %50 = zext i32 %.069100.us to i64
  %51 = getelementptr inbounds nuw ptr, ptr %49, i64 %50
  %52 = load ptr, ptr %51, align 8, !tbaa !49
  %53 = load ptr, ptr %45, align 8, !tbaa !51
  %54 = getelementptr inbounds nuw ptr, ptr %53, i64 %50
  %55 = load ptr, ptr %54, align 8, !tbaa !49
  %56 = load ptr, ptr %46, align 8, !tbaa !51
  %57 = getelementptr inbounds nuw ptr, ptr %56, i64 %50
  %58 = load ptr, ptr %57, align 8, !tbaa !49
  br label %59

59:                                               ; preds = %.lr.ph.us103, %59
  %indvars.iv125 = phi i64 [ 0, %.lr.ph.us103 ], [ %indvars.iv.next126, %59 ]
  %.07998.us = phi ptr [ %48, %.lr.ph.us103 ], [ %66, %59 ]
  %60 = getelementptr inbounds nuw i8, ptr %.07998.us, i64 1
  %61 = load i8, ptr %.07998.us, align 1, !tbaa !32
  %62 = getelementptr inbounds nuw i8, ptr %52, i64 %indvars.iv125
  store i8 %61, ptr %62, align 1, !tbaa !32
  %63 = getelementptr inbounds nuw i8, ptr %.07998.us, i64 2
  %64 = load i8, ptr %60, align 1, !tbaa !32
  %65 = getelementptr inbounds nuw i8, ptr %55, i64 %indvars.iv125
  store i8 %64, ptr %65, align 1, !tbaa !32
  %66 = getelementptr inbounds nuw i8, ptr %.07998.us, i64 3
  %67 = load i8, ptr %63, align 1, !tbaa !32
  %68 = getelementptr inbounds nuw i8, ptr %58, i64 %indvars.iv125
  store i8 %67, ptr %68, align 1, !tbaa !32
  %indvars.iv.next126 = add nuw nsw i64 %indvars.iv125, 1
  %exitcond129.not = icmp eq i64 %indvars.iv.next126, %wide.trip.count128
  br i1 %exitcond129.not, label %..loopexit87_crit_edge.us, label %59, !llvm.loop !74

..loopexit87_crit_edge.us:                        ; preds = %59
  %69 = getelementptr inbounds nuw i8, ptr %.0101.us, i64 8
  %70 = add i32 %.069100.us, 1
  %71 = icmp sgt i32 %.in140, 1
  br i1 %71, label %.lr.ph.us103, label %.loopexit, !llvm.loop !75

.preheader86:                                     ; preds = %5
  br i1 %10, label %.preheader.lr.ph, label %.loopexit

.preheader.lr.ph:                                 ; preds = %.preheader86
  %72 = icmp slt i32 %7, 1
  %73 = sext i32 %7 to i64
  %.not117 = icmp eq i32 %9, 0
  %or.cond = select i1 %72, i1 true, i1 %.not117
  br i1 %or.cond, label %.loopexit, label %.preheader.us.us.preheader

.preheader.us.us.preheader:                       ; preds = %.preheader.lr.ph
  %wide.trip.count138 = zext nneg i32 %7 to i64
  %wide.trip.count133 = zext i32 %9 to i64
  br label %.preheader.us.us

.preheader.us.us:                                 ; preds = %.preheader.us.us.preheader, %._crit_edge108.split.us.us.us
  %.in141 = phi i32 [ %74, %._crit_edge108.split.us.us.us ], [ %4, %.preheader.us.us.preheader ]
  %.2111.us.us = phi ptr [ %86, %._crit_edge108.split.us.us.us ], [ %1, %.preheader.us.us.preheader ]
  %.271110.us.us = phi i32 [ %87, %._crit_edge108.split.us.us.us ], [ %3, %.preheader.us.us.preheader ]
  %74 = add nsw i32 %.in141, -1
  %75 = zext i32 %.271110.us.us to i64
  br label %.lr.ph.us109.us.us

.lr.ph.us109.us.us:                               ; preds = %._crit_edge.us.us.us, %.preheader.us.us
  %indvars.iv135 = phi i64 [ %indvars.iv.next136, %._crit_edge.us.us.us ], [ 0, %.preheader.us.us ]
  %76 = load ptr, ptr %.2111.us.us, align 8, !tbaa !49
  %77 = getelementptr inbounds nuw ptr, ptr %2, i64 %indvars.iv135
  %78 = load ptr, ptr %77, align 8, !tbaa !51
  %79 = getelementptr inbounds nuw ptr, ptr %78, i64 %75
  %80 = load ptr, ptr %79, align 8, !tbaa !49
  br label %81

81:                                               ; preds = %81, %.lr.ph.us109.us.us
  %indvars.iv130 = phi i64 [ %indvars.iv.next131, %81 ], [ 0, %.lr.ph.us109.us.us ]
  %.281104.us.us.us = phi ptr [ %85, %81 ], [ %76, %.lr.ph.us109.us.us ]
  %82 = getelementptr inbounds nuw i8, ptr %.281104.us.us.us, i64 %indvars.iv135
  %83 = load i8, ptr %82, align 1, !tbaa !32
  %84 = getelementptr inbounds nuw i8, ptr %80, i64 %indvars.iv130
  store i8 %83, ptr %84, align 1, !tbaa !32
  %85 = getelementptr inbounds nuw i8, ptr %.281104.us.us.us, i64 %73
  %indvars.iv.next131 = add nuw nsw i64 %indvars.iv130, 1
  %exitcond134.not = icmp eq i64 %indvars.iv.next131, %wide.trip.count133
  br i1 %exitcond134.not, label %._crit_edge.us.us.us, label %81, !llvm.loop !76

._crit_edge.us.us.us:                             ; preds = %81
  %indvars.iv.next136 = add nuw nsw i64 %indvars.iv135, 1
  %exitcond139.not = icmp eq i64 %indvars.iv.next136, %wide.trip.count138
  br i1 %exitcond139.not, label %._crit_edge108.split.us.us.us, label %.lr.ph.us109.us.us, !llvm.loop !77

._crit_edge108.split.us.us.us:                    ; preds = %._crit_edge.us.us.us
  %86 = getelementptr inbounds nuw i8, ptr %.2111.us.us, i64 8
  %87 = add i32 %.271110.us.us, 1
  %88 = icmp sgt i32 %.in141, 1
  br i1 %88, label %.preheader.us.us, label %.loopexit, !llvm.loop !78

.loopexit:                                        ; preds = %..loopexit90_crit_edge.us, %..loopexit87_crit_edge.us, %._crit_edge108.split.us.us.us, %.preheader.lr.ph, %.lr.ph102, %.lr.ph97, %.preheader91, %.preheader88, %.preheader86
  ret void
}